; ModuleID = 'source-C-CXX/41/765.c'
source_filename = "source-C-CXX/41/765.c"
target datalayout = "e-m:e-p270:32:32-p271:32:32-p272:64:64-i64:64-f80:128-n8:16:32:64-S128"
target triple = "x86_64-pc-linux-gnu"

@.str = private unnamed_addr constant [4 x i8] c"%ld\00", align 1
@.str.1 = private unnamed_addr constant [5 x i8] c" %ld\00", align 1

; Function Attrs: nofree nounwind sspstrong uwtable
define dso_local void @main() local_unnamed_addr #0 {
  %1 = alloca i64, align 8
  %2 = alloca i32, align 4
  %3 = bitcast i64* %1 to i8*
  call void @llvm.lifetime.start.p0i8(i64 8, i8* nonnull %3) #4
  %4 = call i32 (i8*, ...) @__isoc99_scanf(i8* getelementptr inbounds ([4 x i8], [4 x i8]* @.str, i64 0, i64 0), i64* nonnull %1)
  %5 = call noalias align 16 dereferenceable_or_null(800000) i8* @malloc(i64 800000) #4
  %6 = bitcast i8* %5 to i64*
  %7 = load i64, i64* %1, align 8, !tbaa !5
  %8 = icmp sgt i64 %7, 0
  br i1 %8, label %9, label %17

9:                                                ; preds = %0, %9
  %10 = phi i64 [ %13, %9 ], [ 0, %0 ]
  %11 = phi i64* [ %14, %9 ], [ %6, %0 ]
  %12 = call i32 (i8*, ...) @__isoc99_scanf(i8* getelementptr inbounds ([4 x i8], [4 x i8]* @.str, i64 0, i64 0), i64* %11)
  %13 = add nuw nsw i64 %10, 1
  %14 = getelementptr inbounds i64, i64* %11, i64 1
  %15 = load i64, i64* %1, align 8, !tbaa !5
  %16 = icmp slt i64 %13, %15
  br i1 %16, label %9, label %17, !llvm.loop !9

17:                                               ; preds = %9, %0
  %18 = phi i64* [ %6, %0 ], [ %14, %9 ]
  %19 = bitcast i32* %2 to i8*
  call void @llvm.lifetime.start.p0i8(i64 4, i8* nonnull %19) #4
  %20 = call i32 (i8*, ...) @__isoc99_scanf(i8* getelementptr inbounds ([4 x i8], [4 x i8]* @.str, i64 0, i64 0), i32* nonnull %2)
  %21 = load i64, i64* %1, align 8, !tbaa !5
  %22 = icmp sgt i64 %21, 0
  br i1 %22, label %23, label %46

23:                                               ; preds = %17
  %24 = sub nsw i64 0, %21
  %25 = getelementptr inbounds i64, i64* %18, i64 %24
  br label %26

26:                                               ; preds = %23, %40
  %27 = phi i64 [ %41, %40 ], [ 0, %23 ]
  %28 = phi i64 [ %42, %40 ], [ 0, %23 ]
  %29 = phi i64* [ %43, %40 ], [ %25, %23 ]
  %30 = load i64, i64* %29, align 8, !tbaa !5
  %31 = load i32, i32* %2, align 4, !tbaa !11
  %32 = sext i32 %31 to i64
  %33 = icmp ne i64 %30, %32
  %34 = icmp ne i64 %27, 1
  %35 = select i1 %33, i1 %34, i1 false
  br i1 %33, label %36, label %40

36:                                               ; preds = %26
  %37 = select i1 %35, i64 1, i64 %27
  %38 = select i1 %35, i8* getelementptr inbounds ([4 x i8], [4 x i8]* @.str, i64 0, i64 0), i8* getelementptr inbounds ([5 x i8], [5 x i8]* @.str.1, i64 0, i64 0)
  %39 = call i32 (i8*, ...) @printf(i8* nonnull dereferenceable(1) %38, i64 %30)
  br label %40

40:                                               ; preds = %26, %36
  %41 = phi i64 [ %37, %36 ], [ %27, %26 ]
  %42 = add nuw nsw i64 %28, 1
  %43 = getelementptr inbounds i64, i64* %29, i64 1
  %44 = load i64, i64* %1, align 8, !tbaa !5
  %45 = icmp slt i64 %42, %44
  br i1 %45, label %26, label %46, !llvm.loop !13

46:                                               ; preds = %40, %17
  call void @llvm.lifetime.end.p0i8(i64 4, i8* nonnull %19) #4
  call void @llvm.lifetime.end.p0i8(i64 8, i8* nonnull %3) #4
  ret void
}

; Function Attrs: argmemonly mustprogress nofree nosync nounwind willreturn
declare void @llvm.lifetime.start.p0i8(i64 immarg, i8* nocapture) #1

; Function Attrs: nofree nounwind
declare noundef i32 @__isoc99_scanf(i8* nocapture noundef readonly, ...) local_unnamed_addr #2

; Function Attrs: inaccessiblememonly mustprogress nofree nounwind willreturn
declare noalias noundef align 16 i8* @malloc(i64 noundef) local_unnamed_addr #3

; Function Attrs: nofree nounwind
declare noundef i32 @printf(i8* nocapture noundef readonly, ...) local_unnamed_addr #2

; Function Attrs: argmemonly mustprogress nofree nosync nounwind willreturn
declare void @llvm.lifetime.end.p0i8(i64 immarg, i8* nocapture) #1


!llvm.module.flags = !{!0, !1, !2, !3}
!llvm.ident = !{!4}

!0 = !{i32 1, !"wchar_size", i32 4}
!1 = !{i32 7, !"PIC Level", i32 2}
!2 = !{i32 7, !"PIE Level", i32 2}
!3 = !{i32 7, !"uwtable", i32 1}
!4 = !{!"clang version 13.0.0"}
!5 = !{!6, !6, i64 0}
!6 = !{!"long", !7, i64 0}
!7 = !{!"omnipotent char", !8, i64 0}
!8 = !{!"Simple C/C++ TBAA"}
!9 = distinct !{!9, !10}
!10 = !{!"llvm.loop.mustprogress"}
!11 = !{!12, !12, i64 0}
!12 = !{!"int", !7, i64 0}
!13 = distinct !{!13, !10}
